; Function Attrs: nounwind uwtable
define void @Acb_ObjMarkTfo2(ptr noundef captures(none) %0, ptr noundef readonly captures(none) %1) local_unnamed_addr #0 {
  %3 = getelementptr i8, ptr %0, i64 260
  %.val.i = load i32, ptr %3, align 4, !tbaa !15
  %4 = icmp slt i32 %.val.i, 1
  br i1 %4, label %5, label %Acb_NtkIncTravId.exit

5:                                                ; preds = %2
  %6 = getelementptr inbounds nuw i8, ptr %0, i64 256
  %7 = getelementptr inbounds nuw i8, ptr %0, i64 112
  %.val.i.i = load i32, ptr %7, align 8, !tbaa !12
  %8 = load i32, ptr %6, align 8, !tbaa !31
  %.not.i.i.i.i = icmp slt i32 %8, %.val.i.i
  br i1 %.not.i.i.i.i, label %9, label %Vec_IntGrow.exit.i.i.i

9:                                                ; preds = %5
  %10 = getelementptr inbounds nuw i8, ptr %0, i64 264
  %11 = load ptr, ptr %10, align 8, !tbaa !18
  %.not9.i.i.i.i = icmp eq ptr %11, null
  %12 = sext i32 %.val.i.i to i64
  %13 = shl nsw i64 %12, 2
  br i1 %.not9.i.i.i.i, label %16, label %14

14:                                               ; preds = %9
  %15 = tail call ptr @realloc(ptr noundef nonnull %11, i64 noundef %13) #23
  br label %18

16:                                               ; preds = %9
  %17 = tail call noalias ptr @malloc(i64 noundef %13) #24
  br label %18

18:                                               ; preds = %16, %14
  %19 = phi ptr [ %15, %14 ], [ %17, %16 ]
  store ptr %19, ptr %10, align 8, !tbaa !18
  store i32 %.val.i.i, ptr %6, align 8, !tbaa !31
  br label %Vec_IntGrow.exit.i.i.i

Vec_IntGrow.exit.i.i.i:                           ; preds = %18, %5
  %20 = icmp sgt i32 %.val.i.i, 0
  br i1 %20, label %.lr.ph.i.i.i, label %Acb_NtkCleanObjTravs.exit.i

.lr.ph.i.i.i:                                     ; preds = %Vec_IntGrow.exit.i.i.i
  %21 = getelementptr inbounds nuw i8, ptr %0, i64 264
  %22 = load ptr, ptr %21, align 8, !tbaa !18
  %wide.trip.count.i.i.i = zext nneg i32 %.val.i.i to i64
  %23 = shl nuw nsw i64 %wide.trip.count.i.i.i, 2
  tail call void @llvm.memset.p0.i64(ptr align 4 %22, i8 0, i64 %23, i1 false), !tbaa !19
  br label %Acb_NtkCleanObjTravs.exit.i

Acb_NtkCleanObjTravs.exit.i:                      ; preds = %.lr.ph.i.i.i, %Vec_IntGrow.exit.i.i.i
  store i32 %.val.i.i, ptr %3, align 4, !tbaa !15
  br label %Acb_NtkIncTravId.exit

Acb_NtkIncTravId.exit:                            ; preds = %2, %Acb_NtkCleanObjTravs.exit.i
  %24 = getelementptr inbounds nuw i8, ptr %0, i64 96
  %25 = load i32, ptr %24, align 8, !tbaa !73
  %26 = add nsw i32 %25, 1
  store i32 %26, ptr %24, align 8, !tbaa !73
  %27 = getelementptr i8, ptr %1, i64 4
  %.val10 = load i32, ptr %27, align 4, !tbaa !15
  %28 = icmp sgt i32 %.val10, 0
  br i1 %28, label %.lr.ph, label %.critedge

.lr.ph:                                           ; preds = %Acb_NtkIncTravId.exit
  %29 = getelementptr i8, ptr %1, i64 8
  %.val7 = load ptr, ptr %29, align 8, !tbaa !18
  %30 = getelementptr i8, ptr %0, i64 264
  %.val9 = load ptr, ptr %30, align 8, !tbaa !18
  br label %31

31:                                               ; preds = %.lr.ph, %31
  %indvars.iv = phi i64 [ 0, %.lr.ph ], [ %indvars.iv.next, %31 ]
  %32 = getelementptr inbounds nuw i32, ptr %.val7, i64 %indvars.iv
  %33 = load i32, ptr %32, align 4, !tbaa !19
  %34 = sext i32 %33 to i64
  %35 = getelementptr inbounds i32, ptr %.val9, i64 %34
  store i32 %26, ptr %35, align 4, !tbaa !19
  %indvars.iv.next = add nuw nsw i64 %indvars.iv, 1
  %.val = load i32, ptr %27, align 4, !tbaa !15
  %36 = sext i32 %.val to i64
  %37 = icmp slt i64 %indvars.iv.next, %36
  br i1 %37, label %31, label %.critedge, !llvm.loop !83

.critedge:                                        ; preds = %31, %Acb_NtkIncTravId.exit
  ret void
}